target datalayout = "e-m:e-p270:32:32-p271:32:32-p272:64:64-i64:64-i128:128-f80:128-n8:16:32:64-S128"
target triple = "x86_64-pc-linux-gnu"

%"struct.boost::source_location" = type { ptr, ptr, i32, i32 }
%"struct.boost::process::v2::basic_cstring_ref" = type { ptr }
%"class.boost::system::error_code" = type { %union.anon.1, i64 }
%union.anon.1 = type { %"struct.boost::system::error_code::data" }
%"struct.boost::system::error_code::data" = type { i32, ptr }
%"class.boost::system::error_category" = type <{ ptr, i64, %union.anon.0, %"struct.std::atomic", [4 x i8] }>
%union.anon.0 = type { ptr, [24 x i8] }
%"struct.std::atomic" = type { %"struct.std::__atomic_base" }
%"struct.std::__atomic_base" = type { i32 }

@_ZZN5boost7process2v211environment6detail3getENS1_17basic_cstring_refIcSt11char_traitsIcEEERNS_6system10error_codeEE11loc__LINE__ = internal constant %"struct.boost::source_location" { ptr @.str, ptr @.str.1, i32 33, i32 65 }, align 8
@.str.5 = private unnamed_addr constant [1 x i8] zeroinitializer, align 1

; Function Attrs: inlinehint mustprogress nounwind uwtable
define linkonce_odr hidden noundef zeroext i1 @_ZN5boost6system6detail11failed_implEiRKNS0_14error_categoryE(i32 noundef %0, ptr noundef nonnull align 8 dereferenceable(52) %1) #1 comdat {
  %3 = alloca i1, align 1
  %4 = alloca i32, align 4
  %5 = alloca ptr, align 8
  store i32 %0, ptr %4, align 4, !tbaa !3
  store ptr %1, ptr %5, align 8, !tbaa !7
  %6 = load ptr, ptr %5, align 8, !tbaa !7
  %7 = getelementptr inbounds nuw %"class.boost::system::error_category", ptr %6, i32 0, i32 1
  %8 = load i64, ptr %7, align 8, !tbaa !26
  %9 = icmp eq i64 %8, -5572340897628102703
  br i1 %9, label %15, label %10

10:                                               ; preds = %2
  %11 = load ptr, ptr %5, align 8, !tbaa !7
  %12 = getelementptr inbounds nuw %"class.boost::system::error_category", ptr %11, i32 0, i32 1
  %13 = load i64, ptr %12, align 8, !tbaa !26
  %14 = icmp eq i64 %13, -5572340897628102704
  br i1 %14, label %15, label %18

15:                                               ; preds = %10, %2
  %16 = load i32, ptr %4, align 4, !tbaa !3
  %17 = icmp ne i32 %16, 0
  store i1 %17, ptr %3, align 1
  br label %25

18:                                               ; preds = %10
  %19 = load ptr, ptr %5, align 8, !tbaa !7
  %20 = load i32, ptr %4, align 4, !tbaa !3
  %21 = load ptr, ptr %19, align 8, !tbaa !22
  %22 = getelementptr inbounds ptr, ptr %21, i64 6
  %23 = load ptr, ptr %22, align 8
  %24 = call noundef zeroext i1 %23(ptr noundef nonnull align 8 dereferenceable(52) %19, i32 noundef %20) #13
  store i1 %24, ptr %3, align 1
  br label %25

25:                                               ; preds = %18, %15
  %26 = load i1, ptr %3, align 1
  ret i1 %26
}

; Function Attrs: noinline noreturn nounwind uwtable
define linkonce_odr hidden void @__clang_call_terminate(ptr noundef %0) #3 comdat {
  %2 = call ptr @__cxa_begin_catch(ptr %0) #13
  call void @_ZSt9terminatev() #14
  unreachable
}

; Function Attrs: mustprogress nounwind uwtable
define internal noundef ptr @_ZN5boost7process2v26detailL10null_char_Ec(i8 noundef signext %0) #2 {
  %2 = alloca i8, align 1
  store i8 %0, ptr %2, align 1, !tbaa !15
  ret ptr @.str.5
}

; Function Attrs: mustprogress nounwind uwtable
define linkonce_odr hidden void @_ZN5boost6system10error_codeC2EiRKNS0_14error_categoryEPKNS_15source_locationE(ptr noundef nonnull align 8 dereferenceable(24) %0, i32 noundef %1, ptr noundef nonnull align 8 dereferenceable(52) %2, ptr noundef %3) unnamed_addr #2 comdat align 2 personality ptr @__gxx_personality_v0 {
  %5 = alloca ptr, align 8
  %6 = alloca i32, align 4
  %7 = alloca ptr, align 8
  %8 = alloca ptr, align 8
  store ptr %0, ptr %5, align 8, !tbaa !7
  store i32 %1, ptr %6, align 4, !tbaa !3
  store ptr %2, ptr %7, align 8, !tbaa !7
  store ptr %3, ptr %8, align 8, !tbaa !7
  %9 = load ptr, ptr %5, align 8
  %10 = getelementptr inbounds nuw %"class.boost::system::error_code", ptr %9, i32 0, i32 0
  call void @llvm.memset.p0.i64(ptr align 8 %10, i8 0, i64 16, i1 false)
  %11 = getelementptr inbounds nuw %"class.boost::system::error_code", ptr %9, i32 0, i32 1
  %12 = load ptr, ptr %8, align 8, !tbaa !7
  %13 = icmp ne ptr %12, null
  br i1 %13, label %14, label %17

14:                                               ; preds = %4
  %15 = load ptr, ptr %8, align 8, !tbaa !7
  %16 = ptrtoint ptr %15 to i64
  br label %18

17:                                               ; preds = %4
  br label %18

18:                                               ; preds = %17, %14
  %19 = phi i64 [ %16, %14 ], [ 2, %17 ]
  %20 = load i32, ptr %6, align 4, !tbaa !3
  %21 = load ptr, ptr %7, align 8, !tbaa !7
  %22 = invoke noundef zeroext i1 @_ZN5boost6system6detail11failed_implEiRKNS0_14error_categoryE(i32 noundef %20, ptr noundef nonnull align 8 dereferenceable(52) %21)
          to label %23 unwind label %33

23:                                               ; preds = %18
  %24 = zext i1 %22 to i32
  %25 = sext i32 %24 to i64
  %26 = or i64 %19, %25
  store i64 %26, ptr %11, align 8, !tbaa !24
  %27 = load i32, ptr %6, align 4, !tbaa !3
  %28 = getelementptr inbounds nuw %"class.boost::system::error_code", ptr %9, i32 0, i32 0
  %29 = getelementptr inbounds nuw %"struct.boost::system::error_code::data", ptr %28, i32 0, i32 0
  store i32 %27, ptr %29, align 8, !tbaa !15
  %30 = load ptr, ptr %7, align 8, !tbaa !7
  %31 = getelementptr inbounds nuw %"class.boost::system::error_code", ptr %9, i32 0, i32 0
  %32 = getelementptr inbounds nuw %"struct.boost::system::error_code::data", ptr %31, i32 0, i32 1
  store ptr %30, ptr %32, align 8, !tbaa !15
  ret void

33:                                               ; preds = %18
  %34 = landingpad { ptr, i32 }
          catch ptr null
  %35 = extractvalue { ptr, i32 } %34, 0
  call void @__clang_call_terminate(ptr %35) #14
  unreachable
}

; Function Attrs: mustprogress nounwind uwtable
define linkonce_odr hidden noundef ptr @_ZNK5boost7process2v217basic_cstring_refIcSt11char_traitsIcEE4dataEv(ptr noundef nonnull align 8 dereferenceable(8) %0) #2 comdat align 2 {
  %2 = alloca ptr, align 8
  store ptr %0, ptr %2, align 8, !tbaa !7
  %3 = load ptr, ptr %2, align 8
  %4 = getelementptr inbounds nuw %"struct.boost::process::v2::basic_cstring_ref", ptr %3, i32 0, i32 0
  %5 = load ptr, ptr %4, align 8, !tbaa !18
  ret ptr %5
}

; Function Attrs: mustprogress nounwind uwtable
define linkonce_odr hidden void @_ZN5boost7process2v217basic_cstring_refIcSt11char_traitsIcEEC2EPKc(ptr noundef nonnull align 8 dereferenceable(8) %0, ptr noundef %1) unnamed_addr #2 comdat align 2 {
  %3 = alloca ptr, align 8
  %4 = alloca ptr, align 8
  store ptr %0, ptr %3, align 8, !tbaa !7
  store ptr %1, ptr %4, align 8, !tbaa !7
  %5 = load ptr, ptr %3, align 8
  %6 = getelementptr inbounds nuw %"struct.boost::process::v2::basic_cstring_ref", ptr %5, i32 0, i32 0
  %7 = load ptr, ptr %4, align 8, !tbaa !7
  store ptr %7, ptr %6, align 8, !tbaa !18
  ret void
}

; Function Attrs: mustprogress nounwind uwtable
define linkonce_odr hidden void @_ZN5boost7process2v217basic_cstring_refIcSt11char_traitsIcEEC2Ev(ptr noundef nonnull align 8 dereferenceable(8) %0) unnamed_addr #2 comdat align 2 personality ptr @__gxx_personality_v0 {
  %2 = alloca ptr, align 8
  store ptr %0, ptr %2, align 8, !tbaa !7
  %3 = load ptr, ptr %2, align 8
  %4 = getelementptr inbounds nuw %"struct.boost::process::v2::basic_cstring_ref", ptr %3, i32 0, i32 0
  %5 = invoke noundef ptr @_ZN5boost7process2v26detailL10null_char_Ec(i8 noundef signext 0)
          to label %6 unwind label %7

6:                                                ; preds = %1
  store ptr %5, ptr %4, align 8, !tbaa !18
  ret void

7:                                                ; preds = %1
  %8 = landingpad { ptr, i32 }
          catch ptr null
  %9 = extractvalue { ptr, i32 } %8, 0
  call void @__clang_call_terminate(ptr %9) #14
  unreachable
}

; Function Attrs: mustprogress nounwind uwtable
define linkonce_odr hidden void @_ZN5boost6system10error_code6assignEiRKNS0_14error_categoryEPKNS_15source_locationE(ptr noundef nonnull align 8 dereferenceable(24) %0, i32 noundef %1, ptr noundef nonnull align 8 dereferenceable(52) %2, ptr noundef %3) #2 comdat align 2 {
  %5 = alloca ptr, align 8
  %6 = alloca i32, align 4
  %7 = alloca ptr, align 8
  %8 = alloca ptr, align 8
  %9 = alloca %"class.boost::system::error_code", align 8
  store ptr %0, ptr %5, align 8, !tbaa !7
  store i32 %1, ptr %6, align 4, !tbaa !3
  store ptr %2, ptr %7, align 8, !tbaa !7
  store ptr %3, ptr %8, align 8, !tbaa !7
  %10 = load ptr, ptr %5, align 8
  call void @llvm.lifetime.start.p0(i64 24, ptr %9) #13
  %11 = load i32, ptr %6, align 4, !tbaa !3
  %12 = load ptr, ptr %7, align 8, !tbaa !7
  %13 = load ptr, ptr %8, align 8, !tbaa !7
  call void @_ZN5boost6system10error_codeC2EiRKNS0_14error_categoryEPKNS_15source_locationE(ptr noundef nonnull align 8 dereferenceable(24) %9, i32 noundef %11, ptr noundef nonnull align 8 dereferenceable(52) %12, ptr noundef %13) #13
  call void @llvm.memcpy.p0.p0.i64(ptr align 8 %10, ptr align 8 %9, i64 24, i1 false), !tbaa.struct !14
  call void @llvm.lifetime.end.p0(i64 24, ptr %9) #13
  ret void
}

; Function Attrs: mustprogress nounwind uwtable
define linkonce_odr hidden noundef nonnull align 8 dereferenceable(52) ptr @_ZN5boost6system15system_categoryEv() #2 comdat {
  ret ptr @_ZN5boost6system6detail17system_cat_holderIvE8instanceE
}

; Function Attrs: mustprogress nounwind uwtable
define linkonce_odr hidden noundef ptr @_ZNK5boost7process2v217basic_cstring_refIcSt11char_traitsIcEE5c_strEv(ptr noundef nonnull align 8 dereferenceable(8) %0) #2 comdat align 2 {
  %2 = alloca ptr, align 8
  store ptr %0, ptr %2, align 8, !tbaa !7
  %3 = load ptr, ptr %2, align 8
  %4 = call noundef ptr @_ZNK5boost7process2v217basic_cstring_refIcSt11char_traitsIcEE4dataEv(ptr noundef nonnull align 8 dereferenceable(8) %3) #13
  ret ptr %4
}

; Function Attrs: mustprogress uwtable
define ptr @_ZN5boost7process2v211environment6detail3getENS1_17basic_cstring_refIcSt11char_traitsIcEEERNS_6system10error_codeE(ptr %0, ptr noundef nonnull align 8 dereferenceable(24) %1) #5 {
  %3 = alloca %"struct.boost::process::v2::basic_cstring_ref", align 8
  %4 = alloca %"struct.boost::process::v2::basic_cstring_ref", align 8
  %5 = alloca ptr, align 8
  %6 = alloca ptr, align 8
  %7 = alloca i32, align 4
  %8 = getelementptr inbounds nuw %"struct.boost::process::v2::basic_cstring_ref", ptr %4, i32 0, i32 0
  store ptr %0, ptr %8, align 8
  store ptr %1, ptr %5, align 8, !tbaa !7
  call void @llvm.lifetime.start.p0(i64 8, ptr %6) #13
  %9 = call noundef ptr @_ZNK5boost7process2v217basic_cstring_refIcSt11char_traitsIcEE5c_strEv(ptr noundef nonnull align 8 dereferenceable(8) %4) #13
  %10 = call ptr @getenv(ptr noundef %9) #13
  store ptr %10, ptr %6, align 8, !tbaa !7
  %11 = load ptr, ptr %6, align 8, !tbaa !7
  %12 = icmp eq ptr %11, null
  br i1 %12, label %13, label %16

13:                                               ; preds = %2
  %14 = load ptr, ptr %5, align 8, !tbaa !7
  %15 = call noundef nonnull align 8 dereferenceable(52) ptr @_ZN5boost6system15system_categoryEv() #13
  call void @_ZN5boost6system10error_code6assignEiRKNS0_14error_categoryEPKNS_15source_locationE(ptr noundef nonnull align 8 dereferenceable(24) %14, i32 noundef 2, ptr noundef nonnull align 8 dereferenceable(52) %15, ptr noundef @_ZZN5boost7process2v211environment6detail3getENS1_17basic_cstring_refIcSt11char_traitsIcEEERNS_6system10error_codeEE11loc__LINE__) #13
  call void @_ZN5boost7process2v217basic_cstring_refIcSt11char_traitsIcEEC2Ev(ptr noundef nonnull align 8 dereferenceable(8) %3) #13
  store i32 1, ptr %7, align 4
  br label %18

16:                                               ; preds = %2
  %17 = load ptr, ptr %6, align 8, !tbaa !7
  call void @_ZN5boost7process2v217basic_cstring_refIcSt11char_traitsIcEEC2EPKc(ptr noundef nonnull align 8 dereferenceable(8) %3, ptr noundef %17)
  store i32 1, ptr %7, align 4
  br label %18

18:                                               ; preds = %16, %13
  call void @llvm.lifetime.end.p0(i64 8, ptr %6) #13
  %19 = getelementptr inbounds nuw %"struct.boost::process::v2::basic_cstring_ref", ptr %3, i32 0, i32 0
  %20 = load ptr, ptr %19, align 8
  ret ptr %20
}