; Function Attrs: mustprogress uwtable
define noundef ptr @_ZN5boost7process2v211environment6detail3getENS1_17basic_cstring_refIcSt11char_traitsIcEEERNS_6system10error_codeE(ptr nocapture readonly %0, ptr nocapture noundef nonnull writeonly align 8 dereferenceable(24) %1) local_unnamed_addr #4 personality ptr @__gxx_personality_v0 {
  %3 = tail call ptr @getenv(ptr noundef %0) #18
  %4 = icmp eq ptr %3, null
  br i1 %4, label %5, label %15

5:                                                ; preds = %2
  %6 = load i64, ptr getelementptr inbounds nuw (i8, ptr @_ZN5boost6system6detail17system_cat_holderIvE8instanceE, i64 8), align 8, !tbaa !3
  %7 = and i64 %6, -2
  %switch.i.i.i = icmp eq i64 %7, -5572340897628102704
  br i1 %switch.i.i.i, label %_ZN5boost6system10error_code6assignEiRKNS0_14error_categoryEPKNS_15source_locationE.exit, label %8

8:                                                ; preds = %5
  %9 = load ptr, ptr @_ZN5boost6system6detail17system_cat_holderIvE8instanceE, align 8, !tbaa !11
  %10 = getelementptr inbounds i8, ptr %9, i64 48
  %11 = load ptr, ptr %10, align 8
  %12 = tail call noundef zeroext i1 %11(ptr noundef nonnull align 8 dereferenceable(52) @_ZN5boost6system6detail17system_cat_holderIvE8instanceE, i32 noundef 2) #18
  %13 = zext i1 %12 to i64
  br label %_ZN5boost6system10error_code6assignEiRKNS0_14error_categoryEPKNS_15source_locationE.exit

_ZN5boost6system10error_code6assignEiRKNS0_14error_categoryEPKNS_15source_locationE.exit: ; preds = %5, %8
  %.0.i.i.i = phi i64 [ %13, %8 ], [ 1, %5 ]
  %14 = or disjoint i64 %.0.i.i.i, ptrtoint (ptr @_ZZN5boost7process2v211environment6detail3getENS1_17basic_cstring_refIcSt11char_traitsIcEEERNS_6system10error_codeEE11loc__LINE__ to i64)
  store i32 2, ptr %1, align 8
  %.sroa.5.0..sroa_idx.i = getelementptr inbounds i8, ptr %1, i64 4
  store i32 0, ptr %.sroa.5.0..sroa_idx.i, align 4
  %.sroa.53.0..sroa_idx.i = getelementptr inbounds i8, ptr %1, i64 8
  store ptr @_ZN5boost6system6detail17system_cat_holderIvE8instanceE, ptr %.sroa.53.0..sroa_idx.i, align 8, !tbaa !13
  %.sroa.6.0..sroa_idx.i = getelementptr inbounds i8, ptr %1, i64 16
  store i64 %14, ptr %.sroa.6.0..sroa_idx.i, align 8, !tbaa !14
  br label %15

15:                                               ; preds = %2, %_ZN5boost6system10error_code6assignEiRKNS0_14error_categoryEPKNS_15source_locationE.exit
  %.sroa.03.0 = phi ptr [ @.str.5, %_ZN5boost6system10error_code6assignEiRKNS0_14error_categoryEPKNS_15source_locationE.exit ], [ %3, %2 ]
  ret ptr %.sroa.03.0
}